; Function Attrs: nofree norecurse nosync nounwind memory(readwrite, inaccessiblemem: none) uwtable
define internal void @png_read_filter_row_up(ptr nocapture noundef readonly %0, ptr nocapture noundef %1, ptr nocapture noundef readonly %2) #6 {
  %4 = getelementptr inbounds i8, ptr %0, i64 8
  %5 = load i64, ptr %4, align 8
  %.not = icmp eq i64 %5, 0
  br i1 %.not, label %._crit_edge, label %.lr.ph

.lr.ph:                                           ; preds = %3, %.lr.ph
  %.013 = phi ptr [ %7, %.lr.ph ], [ %2, %3 ]
  %.0912 = phi ptr [ %9, %.lr.ph ], [ %1, %3 ]
  %.01011 = phi i64 [ %10, %.lr.ph ], [ 0, %3 ]
  %6 = load i8, ptr %.0912, align 1
  %7 = getelementptr inbounds i8, ptr %.013, i64 1
  %8 = load i8, ptr %.013, align 1
  %.narrow = add i8 %8, %6
  store i8 %.narrow, ptr %.0912, align 1
  %9 = getelementptr inbounds i8, ptr %.0912, i64 1
  %10 = add nuw i64 %.01011, 1
  %exitcond.not = icmp eq i64 %10, %5
  br i1 %exitcond.not, label %._crit_edge, label %.lr.ph, !llvm.loop !86

._crit_edge:                                      ; preds = %.lr.ph, %3
  ret void
}